; Function Attrs: nounwind uwtable
define void @Nwk_ManColleacReached_rec(ptr noundef %0, ptr noundef %1, ptr noundef %2, ptr noundef %3) local_unnamed_addr #0 {
  %5 = getelementptr inbounds nuw i8, ptr %0, i64 616
  %6 = load ptr, ptr %5, align 8, !tbaa !55
  %7 = getelementptr i8, ptr %0, i64 32
  %.val.i = load ptr, ptr %7, align 8, !tbaa !68
  %8 = ptrtoint ptr %1 to i64
  %9 = ptrtoint ptr %.val.i to i64
  %10 = sub i64 %8, %9
  %11 = sdiv exact i64 %10, 12
  %sext.i = shl i64 %11, 32
  %12 = ashr exact i64 %sext.i, 30
  %13 = getelementptr inbounds i8, ptr %6, i64 %12
  %14 = load i32, ptr %13, align 4, !tbaa !69
  %15 = getelementptr inbounds nuw i8, ptr %0, i64 176
  %16 = load i32, ptr %15, align 8, !tbaa !70
  %.not = icmp eq i32 %14, %16
  br i1 %.not, label %92, label %17

17:                                               ; preds = %4
  store i32 %16, ptr %13, align 4, !tbaa !69
  %.val21 = load i64, ptr %1, align 4
  %18 = and i64 %.val21, 2684354559
  %narrow.i.not = icmp eq i64 %18, 2684354559
  br i1 %narrow.i.not, label %19, label %49

19:                                               ; preds = %17
  %20 = getelementptr inbounds nuw i8, ptr %3, i64 4
  %21 = load i32, ptr %20, align 4, !tbaa !71
  %22 = load i32, ptr %3, align 8, !tbaa !72
  %23 = icmp eq i32 %21, %22
  br i1 %23, label %24, label %.Vec_IntGrow.exit10_crit_edge.i

.Vec_IntGrow.exit10_crit_edge.i:                  ; preds = %19
  %.phi.trans.insert.i = getelementptr inbounds nuw i8, ptr %3, i64 8
  %.pre.i = load ptr, ptr %.phi.trans.insert.i, align 8, !tbaa !73
  br label %Vec_IntPush.exit

24:                                               ; preds = %19
  %25 = icmp slt i32 %21, 16
  br i1 %25, label %26, label %34

26:                                               ; preds = %24
  %27 = getelementptr inbounds nuw i8, ptr %3, i64 8
  %28 = load ptr, ptr %27, align 8, !tbaa !73
  %.not9.i.i = icmp eq ptr %28, null
  br i1 %.not9.i.i, label %31, label %29

29:                                               ; preds = %26
  %30 = tail call dereferenceable_or_null(64) ptr @realloc(ptr noundef nonnull %28, i64 noundef 64) #15
  br label %Vec_IntGrow.exit.i

31:                                               ; preds = %26
  %32 = tail call noalias dereferenceable_or_null(64) ptr @malloc(i64 noundef 64) #14
  br label %Vec_IntGrow.exit.i

Vec_IntGrow.exit.i:                               ; preds = %31, %29
  %33 = phi ptr [ %30, %29 ], [ %32, %31 ]
  store ptr %33, ptr %27, align 8, !tbaa !73
  store i32 16, ptr %3, align 8, !tbaa !72
  br label %Vec_IntPush.exit

34:                                               ; preds = %24
  %35 = shl nuw nsw i32 %21, 1
  %36 = getelementptr inbounds nuw i8, ptr %3, i64 8
  %37 = load ptr, ptr %36, align 8, !tbaa !73
  %.not9.i9.i = icmp eq ptr %37, null
  %38 = zext nneg i32 %35 to i64
  %39 = shl nuw nsw i64 %38, 2
  br i1 %.not9.i9.i, label %42, label %40

40:                                               ; preds = %34
  %41 = tail call ptr @realloc(ptr noundef nonnull %37, i64 noundef %39) #15
  br label %44

42:                                               ; preds = %34
  %43 = tail call noalias ptr @malloc(i64 noundef %39) #14
  br label %44

44:                                               ; preds = %42, %40
  %45 = phi ptr [ %41, %40 ], [ %43, %42 ]
  store ptr %45, ptr %36, align 8, !tbaa !73
  store i32 %35, ptr %3, align 8, !tbaa !72
  br label %Vec_IntPush.exit

Vec_IntPush.exit:                                 ; preds = %.Vec_IntGrow.exit10_crit_edge.i, %Vec_IntGrow.exit.i, %44
  %46 = phi ptr [ %.pre.i, %.Vec_IntGrow.exit10_crit_edge.i ], [ %45, %44 ], [ %33, %Vec_IntGrow.exit.i ]
  %47 = load i32, ptr %20, align 4, !tbaa !71
  %48 = add nsw i32 %47, 1
  store i32 %48, ptr %20, align 4, !tbaa !71
  br label %.sink.split

49:                                               ; preds = %17
  %50 = and i64 %.val21, 536870911
  %51 = sub nsw i64 0, %50
  %52 = getelementptr inbounds %struct.Gia_Obj_t_, ptr %1, i64 %51
  tail call void @Nwk_ManColleacReached_rec(ptr noundef nonnull %0, ptr noundef nonnull %52, ptr noundef %2, ptr noundef %3)
  %53 = load i64, ptr %1, align 4
  %54 = lshr i64 %53, 32
  %55 = and i64 %54, 536870911
  %56 = sub nsw i64 0, %55
  %57 = getelementptr inbounds %struct.Gia_Obj_t_, ptr %1, i64 %56
  tail call void @Nwk_ManColleacReached_rec(ptr noundef nonnull %0, ptr noundef nonnull %57, ptr noundef %2, ptr noundef %3)
  %.val20 = load ptr, ptr %7, align 8, !tbaa !68
  %58 = ptrtoint ptr %.val20 to i64
  %59 = sub i64 %8, %58
  %60 = sdiv exact i64 %59, 12
  %61 = getelementptr inbounds nuw i8, ptr %2, i64 4
  %62 = load i32, ptr %61, align 4, !tbaa !71
  %63 = load i32, ptr %2, align 8, !tbaa !72
  %64 = icmp eq i32 %62, %63
  br i1 %64, label %65, label %.Vec_IntGrow.exit10_crit_edge.i24

.Vec_IntGrow.exit10_crit_edge.i24:                ; preds = %49
  %.phi.trans.insert.i25 = getelementptr inbounds nuw i8, ptr %2, i64 8
  %.pre.i26 = load ptr, ptr %.phi.trans.insert.i25, align 8, !tbaa !73
  br label %Vec_IntPush.exit30

65:                                               ; preds = %49
  %66 = icmp slt i32 %62, 16
  br i1 %66, label %67, label %75

67:                                               ; preds = %65
  %68 = getelementptr inbounds nuw i8, ptr %2, i64 8
  %69 = load ptr, ptr %68, align 8, !tbaa !73
  %.not9.i.i28 = icmp eq ptr %69, null
  br i1 %.not9.i.i28, label %72, label %70

70:                                               ; preds = %67
  %71 = tail call dereferenceable_or_null(64) ptr @realloc(ptr noundef nonnull %69, i64 noundef 64) #15
  br label %Vec_IntGrow.exit.i29

72:                                               ; preds = %67
  %73 = tail call noalias dereferenceable_or_null(64) ptr @malloc(i64 noundef 64) #14
  br label %Vec_IntGrow.exit.i29

Vec_IntGrow.exit.i29:                             ; preds = %72, %70
  %74 = phi ptr [ %71, %70 ], [ %73, %72 ]
  store ptr %74, ptr %68, align 8, !tbaa !73
  store i32 16, ptr %2, align 8, !tbaa !72
  br label %Vec_IntPush.exit30

75:                                               ; preds = %65
  %76 = shl nuw nsw i32 %62, 1
  %77 = getelementptr inbounds nuw i8, ptr %2, i64 8
  %78 = load ptr, ptr %77, align 8, !tbaa !73
  %.not9.i9.i27 = icmp eq ptr %78, null
  %79 = zext nneg i32 %76 to i64
  %80 = shl nuw nsw i64 %79, 2
  br i1 %.not9.i9.i27, label %83, label %81

81:                                               ; preds = %75
  %82 = tail call ptr @realloc(ptr noundef nonnull %78, i64 noundef %80) #15
  br label %85

83:                                               ; preds = %75
  %84 = tail call noalias ptr @malloc(i64 noundef %80) #14
  br label %85

85:                                               ; preds = %83, %81
  %86 = phi ptr [ %82, %81 ], [ %84, %83 ]
  store ptr %86, ptr %77, align 8, !tbaa !73
  store i32 %76, ptr %2, align 8, !tbaa !72
  br label %Vec_IntPush.exit30

Vec_IntPush.exit30:                               ; preds = %.Vec_IntGrow.exit10_crit_edge.i24, %Vec_IntGrow.exit.i29, %85
  %87 = phi ptr [ %.pre.i26, %.Vec_IntGrow.exit10_crit_edge.i24 ], [ %86, %85 ], [ %74, %Vec_IntGrow.exit.i29 ]
  %88 = load i32, ptr %61, align 4, !tbaa !71
  %89 = add nsw i32 %88, 1
  store i32 %89, ptr %61, align 4, !tbaa !71
  br label %.sink.split

.sink.split:                                      ; preds = %Vec_IntPush.exit, %Vec_IntPush.exit30
  %.sink34 = phi i32 [ %88, %Vec_IntPush.exit30 ], [ %47, %Vec_IntPush.exit ]
  %.sink32 = phi ptr [ %87, %Vec_IntPush.exit30 ], [ %46, %Vec_IntPush.exit ]
  %.sink.in = phi i64 [ %60, %Vec_IntPush.exit30 ], [ %11, %Vec_IntPush.exit ]
  %.sink = trunc i64 %.sink.in to i32
  %90 = sext i32 %.sink34 to i64
  %91 = getelementptr inbounds i32, ptr %.sink32, i64 %90
  store i32 %.sink, ptr %91, align 4, !tbaa !69
  br label %92

92:                                               ; preds = %.sink.split, %4
  ret void
}